target datalayout = "e-m:e-p270:32:32-p271:32:32-p272:64:64-i64:64-i128:128-f80:128-n8:16:32:64-S128"
target triple = "x86_64-pc-linux-gnu"

%struct.crypto_ex_data_st = type { ptr }
%struct.ssl_ctx_st = type { ptr, %union.crypto_mutex_st, i16, i16, ptr, ptr, ptr, ptr, ptr, ptr, i64, ptr, ptr, i32, i32, i64, ptr, ptr, ptr, i32, ptr, ptr, ptr, ptr, ptr, ptr, %struct.crypto_ex_data_st, ptr, ptr, ptr, ptr, i32, i32, i32, ptr, ptr, ptr, i32, i32, [32 x i8], ptr, ptr, ptr, ptr, i16, ptr, ptr, [16 x i8], [16 x i8], [16 x i8], ptr, ptr, ptr, ptr, i8, ptr, ptr, ptr, ptr, ptr, ptr, ptr, i32, ptr, i64, ptr, ptr, ptr, i64, ptr, i64, ptr, ptr, i8, ptr, i32 }
%union.crypto_mutex_st = type { double, [48 x i8] }

@.str = private unnamed_addr constant [117 x i8] c"generated/home/dtcxzyw/WorkSpace/Projects/compilers/llvm-opt-benchmark/bench/libquic/libquic/boringssl/ssl/ssl_rsa.c\00", align 1

; Function Attrs: nounwind uwtable
define hidden i32 @SSL_CTX_use_certificate(ptr noundef %0, ptr noundef %1) #0 {
  %3 = alloca i32, align 4
  %4 = alloca ptr, align 8
  %5 = alloca ptr, align 8
  store ptr %0, ptr %4, align 8, !tbaa !58
  store ptr %1, ptr %5, align 8, !tbaa !11
  %6 = load ptr, ptr %5, align 8, !tbaa !11
  %7 = icmp eq ptr %6, null
  br i1 %7, label %8, label %9

8:                                                ; preds = %2
  call void @ERR_put_error(i32 noundef 16, i32 noundef 0, i32 noundef 67, ptr noundef @.str, i32 noundef 196)
  store i32 0, ptr %3, align 4
  br label %15

9:                                                ; preds = %2
  %10 = load ptr, ptr %4, align 8, !tbaa !58
  %11 = getelementptr inbounds nuw %struct.ssl_ctx_st, ptr %10, i32 0, i32 34
  %12 = load ptr, ptr %11, align 8, !tbaa !59
  %13 = load ptr, ptr %5, align 8, !tbaa !11
  %14 = call i32 @ssl_set_cert(ptr noundef %12, ptr noundef %13)
  store i32 %14, ptr %3, align 4
  br label %15

15:                                               ; preds = %9, %8
  %16 = load i32, ptr %3, align 4
  ret i32 %16
}

; Function Attrs: nounwind uwtable
define hidden i32 @SSL_CTX_use_certificate_ASN1(ptr noundef %0, i64 noundef %1, ptr noundef %2) #0 {
  %4 = alloca i32, align 4
  %5 = alloca ptr, align 8
  %6 = alloca i64, align 8
  %7 = alloca ptr, align 8
  %8 = alloca ptr, align 8
  %9 = alloca ptr, align 8
  %10 = alloca i32, align 4
  %11 = alloca i32, align 4
  store ptr %0, ptr %5, align 8, !tbaa !58
  store i64 %1, ptr %6, align 8, !tbaa !54
  store ptr %2, ptr %7, align 8, !tbaa !53
  %12 = load i64, ptr %6, align 8, !tbaa !54
  %13 = icmp ugt i64 %12, 9223372036854775807
  br i1 %13, label %14, label %15

14:                                               ; preds = %3
  call void @ERR_put_error(i32 noundef 16, i32 noundef 0, i32 noundef 69, ptr noundef @.str, i32 noundef 242)
  store i32 0, ptr %4, align 4
  br label %36

15:                                               ; preds = %3
  call void @llvm.lifetime.start.p0(i64 8, ptr %8) #4
  %16 = load ptr, ptr %7, align 8, !tbaa !53
  store ptr %16, ptr %8, align 8, !tbaa !53
  call void @llvm.lifetime.start.p0(i64 8, ptr %9) #4
  %17 = load i64, ptr %6, align 8, !tbaa !54
  %18 = call ptr @d2i_X509(ptr noundef null, ptr noundef %8, i64 noundef %17)
  store ptr %18, ptr %9, align 8, !tbaa !11
  %19 = load ptr, ptr %9, align 8, !tbaa !11
  %20 = icmp eq ptr %19, null
  br i1 %20, label %27, label %21

21:                                               ; preds = %15
  %22 = load ptr, ptr %8, align 8, !tbaa !53
  %23 = load ptr, ptr %7, align 8, !tbaa !53
  %24 = load i64, ptr %6, align 8, !tbaa !54
  %25 = getelementptr inbounds nuw i8, ptr %23, i64 %24
  %26 = icmp ne ptr %22, %25
  br i1 %26, label %27, label %29

27:                                               ; preds = %21, %15
  call void @ERR_put_error(i32 noundef 16, i32 noundef 0, i32 noundef 12, ptr noundef @.str, i32 noundef 249)
  %28 = load ptr, ptr %9, align 8, !tbaa !11
  call void @X509_free(ptr noundef %28)
  store i32 0, ptr %4, align 4
  store i32 1, ptr %10, align 4
  br label %35

29:                                               ; preds = %21
  call void @llvm.lifetime.start.p0(i64 4, ptr %11) #4
  %30 = load ptr, ptr %5, align 8, !tbaa !58
  %31 = load ptr, ptr %9, align 8, !tbaa !11
  %32 = call i32 @SSL_CTX_use_certificate(ptr noundef %30, ptr noundef %31)
  store i32 %32, ptr %11, align 4, !tbaa !55
  %33 = load ptr, ptr %9, align 8, !tbaa !11
  call void @X509_free(ptr noundef %33)
  %34 = load i32, ptr %11, align 4, !tbaa !55
  store i32 %34, ptr %4, align 4
  store i32 1, ptr %10, align 4
  call void @llvm.lifetime.end.p0(i64 4, ptr %11) #4
  br label %35

35:                                               ; preds = %29, %27
  call void @llvm.lifetime.end.p0(i64 8, ptr %9) #4
  call void @llvm.lifetime.end.p0(i64 8, ptr %8) #4
  br label %36

36:                                               ; preds = %35, %14
  %37 = load i32, ptr %4, align 4
  ret i32 %37
}