; Function Attrs: nounwind uwtable
define hidden range(i32 0, 2) i32 @SSL_CTX_use_certificate_ASN1(ptr noundef readonly captures(none) %0, i64 noundef %1, ptr noundef %2) local_unnamed_addr #0 {
  %4 = alloca ptr, align 8
  %5 = icmp slt i64 %1, 0
  br i1 %5, label %6, label %7

6:                                                ; preds = %3
  tail call void @ERR_put_error(i32 noundef 16, i32 noundef 0, i32 noundef 69, ptr noundef nonnull @.str, i32 noundef 242) #6
  br label %17

7:                                                ; preds = %3
  call void @llvm.lifetime.start.p0(i64 8, ptr nonnull %4) #6
  store ptr %2, ptr %4, align 8, !tbaa !48
  %8 = call ptr @d2i_X509(ptr noundef null, ptr noundef nonnull %4, i64 noundef %1) #6
  %9 = icmp ne ptr %8, null
  %10 = load ptr, ptr %4, align 8
  %11 = getelementptr inbounds nuw i8, ptr %2, i64 %1
  %.not = icmp eq ptr %10, %11
  %or.cond = select i1 %9, i1 %.not, i1 false
  br i1 %or.cond, label %SSL_CTX_use_certificate.exit, label %12

12:                                               ; preds = %7
  call void @ERR_put_error(i32 noundef 16, i32 noundef 0, i32 noundef 12, ptr noundef nonnull @.str, i32 noundef 249) #6
  br label %16

SSL_CTX_use_certificate.exit:                     ; preds = %7
  %13 = getelementptr inbounds nuw i8, ptr %0, i64 296
  %14 = load ptr, ptr %13, align 8, !tbaa !49
  %15 = call fastcc i32 @ssl_set_cert(ptr noundef %14, ptr noundef nonnull %8)
  br label %16

16:                                               ; preds = %SSL_CTX_use_certificate.exit, %12
  %.1 = phi i32 [ 0, %12 ], [ %15, %SSL_CTX_use_certificate.exit ]
  call void @X509_free(ptr noundef %8) #6
  call void @llvm.lifetime.end.p0(i64 8, ptr nonnull %4) #6
  br label %17

17:                                               ; preds = %16, %6
  %.0 = phi i32 [ 0, %6 ], [ %.1, %16 ]
  ret i32 %.0
}